target datalayout = "e-m:e-p270:32:32-p271:32:32-p272:64:64-i64:64-i128:128-f80:128-n8:16:32:64-S128"
target triple = "x86_64-pc-linux-gnu"

%struct.mpd_context_t = type { i64, i64, i64, i32, i32, i32, i32, i32, i32 }

; Function Attrs: nounwind uwtable
define hidden i32 @mpd_qsetprec(ptr noundef %0, i64 noundef %1) #0 {
  %3 = alloca i32, align 4
  %4 = alloca ptr, align 8
  %5 = alloca i64, align 8
  store ptr %0, ptr %4, align 8, !tbaa !3
  store i64 %1, ptr %5, align 8, !tbaa !8
  %6 = load i64, ptr %5, align 8, !tbaa !8
  %7 = icmp sle i64 %6, 0
  br i1 %7, label %11, label %8

8:                                                ; preds = %2
  %9 = load i64, ptr %5, align 8, !tbaa !8
  %10 = icmp sgt i64 %9, 999999999999999999
  br i1 %10, label %11, label %12

11:                                               ; preds = %8, %2
  store i32 0, ptr %3, align 4
  br label %16

12:                                               ; preds = %8
  %13 = load i64, ptr %5, align 8, !tbaa !8
  %14 = load ptr, ptr %4, align 8, !tbaa !3
  %15 = getelementptr inbounds nuw %struct.mpd_context_t, ptr %14, i32 0, i32 0
  store i64 %13, ptr %15, align 8, !tbaa !14
  store i32 1, ptr %3, align 4
  br label %16

16:                                               ; preds = %12, %11
  %17 = load i32, ptr %3, align 4
  ret i32 %17
}