; Function Attrs: mustprogress nofree norecurse nosync nounwind willreturn memory(argmem: write) uwtable
define hidden range(i32 0, 2) i32 @mpd_qsetprec(ptr noundef writeonly captures(none) %0, i64 noundef %1) local_unnamed_addr #5 {
  %3 = add i64 %1, -1000000000000000000
  %or.cond = icmp ult i64 %3, -999999999999999999
  br i1 %or.cond, label %5, label %4

4:                                                ; preds = %2
  store i64 %1, ptr %0, align 8, !tbaa !10
  br label %5

5:                                                ; preds = %2, %4
  %.0 = phi i32 [ 1, %4 ], [ 0, %2 ]
  ret i32 %.0
}